
snake_temp:     file format elf32-i386


Disassembly of section .text:

40001000 <crt_main>:
40001000:	55                   	push   %ebp
40001001:	89 e5                	mov    %esp,%ebp
40001003:	83 ec 18             	sub    $0x18,%esp
40001006:	b8 48 18 00 40       	mov    $0x40001848,%eax
4000100b:	89 04 24             	mov    %eax,(%esp)
4000100e:	e8 dd 06 00 00       	call   400016f0 <apiPutChar>
40001013:	eb fe                	jmp    40001013 <crt_main+0x13>

40001015 <opening>:
40001015:	55                   	push   %ebp
40001016:	89 e5                	mov    %esp,%ebp
40001018:	83 ec 28             	sub    $0x28,%esp
4000101b:	e8 bc 07 00 00       	call   400017dc <clear>
40001020:	c7 44 24 04 09 00 00 	movl   $0x9,0x4(%esp)
40001027:	00 
40001028:	c7 04 24 1e 00 00 00 	movl   $0x1e,(%esp)
4000102f:	e8 6a 07 00 00       	call   4000179e <apiMoveXY>
40001034:	c7 04 24 4a 18 00 40 	movl   $0x4000184a,(%esp)
4000103b:	e8 cb 06 00 00       	call   4000170b <apiPuts>
40001040:	c7 44 24 04 0a 00 00 	movl   $0xa,0x4(%esp)
40001047:	00 
40001048:	c7 04 24 23 00 00 00 	movl   $0x23,(%esp)
4000104f:	e8 4a 07 00 00       	call   4000179e <apiMoveXY>
40001054:	c7 04 24 5f 18 00 40 	movl   $0x4000185f,(%esp)
4000105b:	e8 ab 06 00 00       	call   4000170b <apiPuts>
40001060:	c7 05 68 29 00 40 00 	movl   $0x0,0x40002968
40001067:	00 00 00 
4000106a:	eb 19                	jmp    40001085 <opening+0x70>
4000106c:	a1 68 29 00 40       	mov    0x40002968,%eax
40001071:	83 c0 01             	add    $0x1,%eax
40001074:	a3 68 29 00 40       	mov    %eax,0x40002968
40001079:	a1 6c 29 00 40       	mov    0x4000296c,%eax
4000107e:	f7 d0                	not    %eax
40001080:	a3 6c 29 00 40       	mov    %eax,0x4000296c
40001085:	a1 68 29 00 40       	mov    0x40002968,%eax
4000108a:	3d fe ff 3f 00       	cmp    $0x3ffffe,%eax
4000108f:	76 db                	jbe    4000106c <opening+0x57>
40001091:	c9                   	leave  
40001092:	c3                   	ret    

40001093 <initSnake>:
40001093:	55                   	push   %ebp
40001094:	89 e5                	mov    %esp,%ebp
40001096:	83 ec 28             	sub    $0x28,%esp
40001099:	c6 05 a0 28 00 40 01 	movb   $0x1,0x400028a0
400010a0:	c6 05 a1 28 00 40 01 	movb   $0x1,0x400028a1
400010a7:	c6 05 a6 28 00 40 00 	movb   $0x0,0x400028a6
400010ae:	c6 05 a7 28 00 40 01 	movb   $0x1,0x400028a7
400010b5:	0f b7 05 a6 28 00 40 	movzwl 0x400028a6,%eax
400010bc:	66 a3 a4 28 00 40    	mov    %ax,0x400028a4
400010c2:	0f b7 05 a4 28 00 40 	movzwl 0x400028a4,%eax
400010c9:	66 a3 a2 28 00 40    	mov    %ax,0x400028a2
400010cf:	c7 05 78 29 00 40 04 	movl   $0x4,0x40002978
400010d6:	00 00 00 
400010d9:	c7 05 70 29 00 40 01 	movl   $0x1,0x40002970
400010e0:	00 00 00 
400010e3:	e8 f4 06 00 00       	call   400017dc <clear>
400010e8:	c7 45 f0 00 00 00 00 	movl   $0x0,-0x10(%ebp)
400010ef:	eb 42                	jmp    40001133 <initSnake+0xa0>
400010f1:	c7 44 24 04 00 00 00 	movl   $0x0,0x4(%esp)
400010f8:	00 
400010f9:	8b 45 f0             	mov    -0x10(%ebp),%eax
400010fc:	89 04 24             	mov    %eax,(%esp)
400010ff:	e8 9a 06 00 00       	call   4000179e <apiMoveXY>
40001104:	c7 04 24 23 00 00 00 	movl   $0x23,(%esp)
4000110b:	e8 b0 06 00 00       	call   400017c0 <apiDrawChar>
40001110:	c7 44 24 04 14 00 00 	movl   $0x14,0x4(%esp)
40001117:	00 
40001118:	8b 45 f0             	mov    -0x10(%ebp),%eax
4000111b:	89 04 24             	mov    %eax,(%esp)
4000111e:	e8 7b 06 00 00       	call   4000179e <apiMoveXY>
40001123:	c7 04 24 23 00 00 00 	movl   $0x23,(%esp)
4000112a:	e8 91 06 00 00       	call   400017c0 <apiDrawChar>
4000112f:	83 45 f0 01          	addl   $0x1,-0x10(%ebp)
40001133:	83 7d f0 45          	cmpl   $0x45,-0x10(%ebp)
40001137:	7e b8                	jle    400010f1 <initSnake+0x5e>
40001139:	c7 45 f0 00 00 00 00 	movl   $0x0,-0x10(%ebp)
40001140:	eb 42                	jmp    40001184 <initSnake+0xf1>
40001142:	8b 45 f0             	mov    -0x10(%ebp),%eax
40001145:	89 44 24 04          	mov    %eax,0x4(%esp)
40001149:	c7 04 24 00 00 00 00 	movl   $0x0,(%esp)
40001150:	e8 49 06 00 00       	call   4000179e <apiMoveXY>
40001155:	c7 04 24 23 00 00 00 	movl   $0x23,(%esp)
4000115c:	e8 5f 06 00 00       	call   400017c0 <apiDrawChar>
40001161:	8b 45 f0             	mov    -0x10(%ebp),%eax
40001164:	89 44 24 04          	mov    %eax,0x4(%esp)
40001168:	c7 04 24 46 00 00 00 	movl   $0x46,(%esp)
4000116f:	e8 2a 06 00 00       	call   4000179e <apiMoveXY>
40001174:	c7 04 24 23 00 00 00 	movl   $0x23,(%esp)
4000117b:	e8 40 06 00 00       	call   400017c0 <apiDrawChar>
40001180:	83 45 f0 01          	addl   $0x1,-0x10(%ebp)
40001184:	83 7d f0 13          	cmpl   $0x13,-0x10(%ebp)
40001188:	7e b8                	jle    40001142 <initSnake+0xaf>
4000118a:	c7 04 24 d8 15 00 40 	movl   $0x400015d8,(%esp)
40001191:	e8 96 06 00 00       	call   4000182c <seed_rand>
40001196:	e8 9e 06 00 00       	call   40001839 <random>
4000119b:	89 c1                	mov    %eax,%ecx
4000119d:	ba db 81 b9 76       	mov    $0x76b981db,%edx
400011a2:	89 c8                	mov    %ecx,%eax
400011a4:	f7 e2                	mul    %edx
400011a6:	89 d0                	mov    %edx,%eax
400011a8:	c1 e8 05             	shr    $0x5,%eax
400011ab:	6b c0 45             	imul   $0x45,%eax,%eax
400011ae:	89 ca                	mov    %ecx,%edx
400011b0:	29 c2                	sub    %eax,%edx
400011b2:	89 d0                	mov    %edx,%eax
400011b4:	83 c0 01             	add    $0x1,%eax
400011b7:	a2 74 29 00 40       	mov    %al,0x40002974
400011bc:	e8 78 06 00 00       	call   40001839 <random>
400011c1:	89 c1                	mov    %eax,%ecx
400011c3:	ba cb 6b 28 af       	mov    $0xaf286bcb,%edx
400011c8:	89 c8                	mov    %ecx,%eax
400011ca:	f7 e2                	mul    %edx
400011cc:	89 c8                	mov    %ecx,%eax
400011ce:	29 d0                	sub    %edx,%eax
400011d0:	d1 e8                	shr    %eax
400011d2:	8d 04 02             	lea    (%edx,%eax,1),%eax
400011d5:	89 c2                	mov    %eax,%edx
400011d7:	c1 ea 04             	shr    $0x4,%edx
400011da:	89 d0                	mov    %edx,%eax
400011dc:	c1 e0 03             	shl    $0x3,%eax
400011df:	01 d0                	add    %edx,%eax
400011e1:	01 c0                	add    %eax,%eax
400011e3:	01 d0                	add    %edx,%eax
400011e5:	89 ca                	mov    %ecx,%edx
400011e7:	29 c2                	sub    %eax,%edx
400011e9:	89 d0                	mov    %edx,%eax
400011eb:	83 c0 01             	add    $0x1,%eax
400011ee:	a2 75 29 00 40       	mov    %al,0x40002975
400011f3:	c9                   	leave  
400011f4:	c3                   	ret    

400011f5 <handleKeyInput>:
400011f5:	55                   	push   %ebp
400011f6:	89 e5                	mov    %esp,%ebp
400011f8:	83 ec 18             	sub    $0x18,%esp
400011fb:	e9 86 00 00 00       	jmp    40001286 <handleKeyInput+0x91>
40001200:	e8 5d 05 00 00       	call   40001762 <apiGetKey>
40001205:	89 45 f4             	mov    %eax,-0xc(%ebp)
40001208:	8b 45 f4             	mov    -0xc(%ebp),%eax
4000120b:	83 f8 4b             	cmp    $0x4b,%eax
4000120e:	74 59                	je     40001269 <handleKeyInput+0x74>
40001210:	83 f8 4b             	cmp    $0x4b,%eax
40001213:	7f 07                	jg     4000121c <handleKeyInput+0x27>
40001215:	83 f8 48             	cmp    $0x48,%eax
40001218:	74 0e                	je     40001228 <handleKeyInput+0x33>
4000121a:	eb 6a                	jmp    40001286 <handleKeyInput+0x91>
4000121c:	83 f8 4d             	cmp    $0x4d,%eax
4000121f:	74 1d                	je     4000123e <handleKeyInput+0x49>
40001221:	83 f8 50             	cmp    $0x50,%eax
40001224:	74 2e                	je     40001254 <handleKeyInput+0x5f>
40001226:	eb 5e                	jmp    40001286 <handleKeyInput+0x91>
40001228:	a1 70 29 00 40       	mov    0x40002970,%eax
4000122d:	83 f8 02             	cmp    $0x2,%eax
40001230:	74 4d                	je     4000127f <handleKeyInput+0x8a>
40001232:	c7 05 70 29 00 40 00 	movl   $0x0,0x40002970
40001239:	00 00 00 
4000123c:	eb 48                	jmp    40001286 <handleKeyInput+0x91>
4000123e:	a1 70 29 00 40       	mov    0x40002970,%eax
40001243:	83 f8 03             	cmp    $0x3,%eax
40001246:	74 3a                	je     40001282 <handleKeyInput+0x8d>
40001248:	c7 05 70 29 00 40 01 	movl   $0x1,0x40002970
4000124f:	00 00 00 
40001252:	eb 32                	jmp    40001286 <handleKeyInput+0x91>
40001254:	a1 70 29 00 40       	mov    0x40002970,%eax
40001259:	85 c0                	test   %eax,%eax
4000125b:	74 28                	je     40001285 <handleKeyInput+0x90>
4000125d:	c7 05 70 29 00 40 02 	movl   $0x2,0x40002970
40001264:	00 00 00 
40001267:	eb 1d                	jmp    40001286 <handleKeyInput+0x91>
40001269:	a1 70 29 00 40       	mov    0x40002970,%eax
4000126e:	83 f8 01             	cmp    $0x1,%eax
40001271:	74 13                	je     40001286 <handleKeyInput+0x91>
40001273:	c7 05 70 29 00 40 03 	movl   $0x3,0x40002970
4000127a:	00 00 00 
4000127d:	eb 07                	jmp    40001286 <handleKeyInput+0x91>
4000127f:	90                   	nop
40001280:	eb 04                	jmp    40001286 <handleKeyInput+0x91>
40001282:	90                   	nop
40001283:	eb 01                	jmp    40001286 <handleKeyInput+0x91>
40001285:	90                   	nop
40001286:	e8 c3 04 00 00       	call   4000174e <apiHasKey>
4000128b:	85 c0                	test   %eax,%eax
4000128d:	0f 85 6d ff ff ff    	jne    40001200 <handleKeyInput+0xb>
40001293:	c9                   	leave  
40001294:	c3                   	ret    

40001295 <crawlSnake>:
40001295:	55                   	push   %ebp
40001296:	89 e5                	mov    %esp,%ebp
40001298:	53                   	push   %ebx
40001299:	83 ec 24             	sub    $0x24,%esp
4000129c:	c7 45 f0 01 00 00 00 	movl   $0x1,-0x10(%ebp)
400012a3:	eb 3a                	jmp    400012df <crawlSnake+0x4a>
400012a5:	0f b6 15 a0 28 00 40 	movzbl 0x400028a0,%edx
400012ac:	8b 45 f0             	mov    -0x10(%ebp),%eax
400012af:	0f b6 84 00 a0 28 00 	movzbl 0x400028a0(%eax,%eax,1),%eax
400012b6:	40 
400012b7:	38 c2                	cmp    %al,%dl
400012b9:	75 20                	jne    400012db <crawlSnake+0x46>
400012bb:	0f b6 15 a1 28 00 40 	movzbl 0x400028a1,%edx
400012c2:	8b 45 f0             	mov    -0x10(%ebp),%eax
400012c5:	0f b6 84 00 a1 28 00 	movzbl 0x400028a1(%eax,%eax,1),%eax
400012cc:	40 
400012cd:	38 c2                	cmp    %al,%dl
400012cf:	75 0a                	jne    400012db <crawlSnake+0x46>
400012d1:	b8 ff ff ff ff       	mov    $0xffffffff,%eax
400012d6:	e9 ca 02 00 00       	jmp    400015a5 <crawlSnake+0x310>
400012db:	83 45 f0 01          	addl   $0x1,-0x10(%ebp)
400012df:	a1 78 29 00 40       	mov    0x40002978,%eax
400012e4:	39 45 f0             	cmp    %eax,-0x10(%ebp)
400012e7:	7c bc                	jl     400012a5 <crawlSnake+0x10>
400012e9:	0f b6 15 a0 28 00 40 	movzbl 0x400028a0,%edx
400012f0:	0f b6 05 74 29 00 40 	movzbl 0x40002974,%eax
400012f7:	38 c2                	cmp    %al,%dl
400012f9:	0f 85 da 00 00 00    	jne    400013d9 <crawlSnake+0x144>
400012ff:	0f b6 15 a1 28 00 40 	movzbl 0x400028a1,%edx
40001306:	0f b6 05 75 29 00 40 	movzbl 0x40002975,%eax
4000130d:	38 c2                	cmp    %al,%dl
4000130f:	0f 85 c4 00 00 00    	jne    400013d9 <crawlSnake+0x144>
40001315:	a1 78 29 00 40       	mov    0x40002978,%eax
4000131a:	83 f8 63             	cmp    $0x63,%eax
4000131d:	7f 5d                	jg     4000137c <crawlSnake+0xe7>
4000131f:	8b 0d 78 29 00 40    	mov    0x40002978,%ecx
40001325:	a1 78 29 00 40       	mov    0x40002978,%eax
4000132a:	83 c0 01             	add    $0x1,%eax
4000132d:	8b 15 78 29 00 40    	mov    0x40002978,%edx
40001333:	83 c2 02             	add    $0x2,%edx
40001336:	8b 1d 78 29 00 40    	mov    0x40002978,%ebx
4000133c:	83 eb 01             	sub    $0x1,%ebx
4000133f:	0f b7 9c 1b a0 28 00 	movzwl 0x400028a0(%ebx,%ebx,1),%ebx
40001346:	40 
40001347:	66 89 9c 12 a0 28 00 	mov    %bx,0x400028a0(%edx,%edx,1)
4000134e:	40 
4000134f:	0f b7 94 12 a0 28 00 	movzwl 0x400028a0(%edx,%edx,1),%edx
40001356:	40 
40001357:	66 89 94 00 a0 28 00 	mov    %dx,0x400028a0(%eax,%eax,1)
4000135e:	40 
4000135f:	0f b7 84 00 a0 28 00 	movzwl 0x400028a0(%eax,%eax,1),%eax
40001366:	40 
40001367:	66 89 84 09 a0 28 00 	mov    %ax,0x400028a0(%ecx,%ecx,1)
4000136e:	40 
4000136f:	a1 78 29 00 40       	mov    0x40002978,%eax
40001374:	83 c0 03             	add    $0x3,%eax
40001377:	a3 78 29 00 40       	mov    %eax,0x40002978
4000137c:	e8 b8 04 00 00       	call   40001839 <random>
40001381:	89 c1                	mov    %eax,%ecx
40001383:	ba db 81 b9 76       	mov    $0x76b981db,%edx
40001388:	89 c8                	mov    %ecx,%eax
4000138a:	f7 e2                	mul    %edx
4000138c:	89 d0                	mov    %edx,%eax
4000138e:	c1 e8 05             	shr    $0x5,%eax
40001391:	6b c0 45             	imul   $0x45,%eax,%eax
40001394:	89 ca                	mov    %ecx,%edx
40001396:	29 c2                	sub    %eax,%edx
40001398:	89 d0                	mov    %edx,%eax
4000139a:	83 c0 01             	add    $0x1,%eax
4000139d:	a2 74 29 00 40       	mov    %al,0x40002974
400013a2:	e8 92 04 00 00       	call   40001839 <random>
400013a7:	89 c1                	mov    %eax,%ecx
400013a9:	ba cb 6b 28 af       	mov    $0xaf286bcb,%edx
400013ae:	89 c8                	mov    %ecx,%eax
400013b0:	f7 e2                	mul    %edx
400013b2:	89 c8                	mov    %ecx,%eax
400013b4:	29 d0                	sub    %edx,%eax
400013b6:	d1 e8                	shr    %eax
400013b8:	8d 04 02             	lea    (%edx,%eax,1),%eax
400013bb:	89 c2                	mov    %eax,%edx
400013bd:	c1 ea 04             	shr    $0x4,%edx
400013c0:	89 d0                	mov    %edx,%eax
400013c2:	c1 e0 03             	shl    $0x3,%eax
400013c5:	01 d0                	add    %edx,%eax
400013c7:	01 c0                	add    %eax,%eax
400013c9:	01 d0                	add    %edx,%eax
400013cb:	89 ca                	mov    %ecx,%edx
400013cd:	29 c2                	sub    %eax,%edx
400013cf:	89 d0                	mov    %edx,%eax
400013d1:	83 c0 01             	add    $0x1,%eax
400013d4:	a2 75 29 00 40       	mov    %al,0x40002975
400013d9:	a1 78 29 00 40       	mov    0x40002978,%eax
400013de:	83 e8 01             	sub    $0x1,%eax
400013e1:	0f b6 84 00 a1 28 00 	movzbl 0x400028a1(%eax,%eax,1),%eax
400013e8:	40 
400013e9:	0f be d0             	movsbl %al,%edx
400013ec:	a1 78 29 00 40       	mov    0x40002978,%eax
400013f1:	83 e8 01             	sub    $0x1,%eax
400013f4:	0f b6 84 00 a0 28 00 	movzbl 0x400028a0(%eax,%eax,1),%eax
400013fb:	40 
400013fc:	0f be c0             	movsbl %al,%eax
400013ff:	89 54 24 04          	mov    %edx,0x4(%esp)
40001403:	89 04 24             	mov    %eax,(%esp)
40001406:	e8 93 03 00 00       	call   4000179e <apiMoveXY>
4000140b:	c7 04 24 20 00 00 00 	movl   $0x20,(%esp)
40001412:	e8 a9 03 00 00       	call   400017c0 <apiDrawChar>
40001417:	a1 78 29 00 40       	mov    0x40002978,%eax
4000141c:	83 e8 01             	sub    $0x1,%eax
4000141f:	89 45 f0             	mov    %eax,-0x10(%ebp)
40001422:	eb 1d                	jmp    40001441 <crawlSnake+0x1ac>
40001424:	8b 45 f0             	mov    -0x10(%ebp),%eax
40001427:	8b 55 f0             	mov    -0x10(%ebp),%edx
4000142a:	83 ea 01             	sub    $0x1,%edx
4000142d:	0f b7 94 12 a0 28 00 	movzwl 0x400028a0(%edx,%edx,1),%edx
40001434:	40 
40001435:	66 89 94 00 a0 28 00 	mov    %dx,0x400028a0(%eax,%eax,1)
4000143c:	40 
4000143d:	83 6d f0 01          	subl   $0x1,-0x10(%ebp)
40001441:	83 7d f0 00          	cmpl   $0x0,-0x10(%ebp)
40001445:	7f dd                	jg     40001424 <crawlSnake+0x18f>
40001447:	a1 70 29 00 40       	mov    0x40002970,%eax
4000144c:	83 f8 01             	cmp    $0x1,%eax
4000144f:	74 2e                	je     4000147f <crawlSnake+0x1ea>
40001451:	83 f8 01             	cmp    $0x1,%eax
40001454:	7f 06                	jg     4000145c <crawlSnake+0x1c7>
40001456:	85 c0                	test   %eax,%eax
40001458:	74 0e                	je     40001468 <crawlSnake+0x1d3>
4000145a:	eb 66                	jmp    400014c2 <crawlSnake+0x22d>
4000145c:	83 f8 02             	cmp    $0x2,%eax
4000145f:	74 35                	je     40001496 <crawlSnake+0x201>
40001461:	83 f8 03             	cmp    $0x3,%eax
40001464:	74 47                	je     400014ad <crawlSnake+0x218>
40001466:	eb 5a                	jmp    400014c2 <crawlSnake+0x22d>
40001468:	8b 45 f0             	mov    -0x10(%ebp),%eax
4000146b:	0f b6 94 00 a1 28 00 	movzbl 0x400028a1(%eax,%eax,1),%edx
40001472:	40 
40001473:	83 ea 01             	sub    $0x1,%edx
40001476:	88 94 00 a1 28 00 40 	mov    %dl,0x400028a1(%eax,%eax,1)
4000147d:	eb 43                	jmp    400014c2 <crawlSnake+0x22d>
4000147f:	8b 45 f0             	mov    -0x10(%ebp),%eax
40001482:	0f b6 94 00 a0 28 00 	movzbl 0x400028a0(%eax,%eax,1),%edx
40001489:	40 
4000148a:	83 c2 01             	add    $0x1,%edx
4000148d:	88 94 00 a0 28 00 40 	mov    %dl,0x400028a0(%eax,%eax,1)
40001494:	eb 2c                	jmp    400014c2 <crawlSnake+0x22d>
40001496:	8b 45 f0             	mov    -0x10(%ebp),%eax
40001499:	0f b6 94 00 a1 28 00 	movzbl 0x400028a1(%eax,%eax,1),%edx
400014a0:	40 
400014a1:	83 c2 01             	add    $0x1,%edx
400014a4:	88 94 00 a1 28 00 40 	mov    %dl,0x400028a1(%eax,%eax,1)
400014ab:	eb 15                	jmp    400014c2 <crawlSnake+0x22d>
400014ad:	8b 45 f0             	mov    -0x10(%ebp),%eax
400014b0:	0f b6 94 00 a0 28 00 	movzbl 0x400028a0(%eax,%eax,1),%edx
400014b7:	40 
400014b8:	83 ea 01             	sub    $0x1,%edx
400014bb:	88 94 00 a0 28 00 40 	mov    %dl,0x400028a0(%eax,%eax,1)
400014c2:	0f b6 05 a0 28 00 40 	movzbl 0x400028a0,%eax
400014c9:	84 c0                	test   %al,%al
400014cb:	7e 21                	jle    400014ee <crawlSnake+0x259>
400014cd:	0f b6 05 a0 28 00 40 	movzbl 0x400028a0,%eax
400014d4:	3c 45                	cmp    $0x45,%al
400014d6:	7f 16                	jg     400014ee <crawlSnake+0x259>
400014d8:	0f b6 05 a1 28 00 40 	movzbl 0x400028a1,%eax
400014df:	84 c0                	test   %al,%al
400014e1:	7e 0b                	jle    400014ee <crawlSnake+0x259>
400014e3:	0f b6 05 a1 28 00 40 	movzbl 0x400028a1,%eax
400014ea:	3c 13                	cmp    $0x13,%al
400014ec:	7e 0a                	jle    400014f8 <crawlSnake+0x263>
400014ee:	b8 ff ff ff ff       	mov    $0xffffffff,%eax
400014f3:	e9 ad 00 00 00       	jmp    400015a5 <crawlSnake+0x310>
400014f8:	0f b6 05 75 29 00 40 	movzbl 0x40002975,%eax
400014ff:	0f be d0             	movsbl %al,%edx
40001502:	0f b6 05 74 29 00 40 	movzbl 0x40002974,%eax
40001509:	0f be c0             	movsbl %al,%eax
4000150c:	89 54 24 04          	mov    %edx,0x4(%esp)
40001510:	89 04 24             	mov    %eax,(%esp)
40001513:	e8 86 02 00 00       	call   4000179e <apiMoveXY>
40001518:	c7 04 24 61 00 00 00 	movl   $0x61,(%esp)
4000151f:	e8 9c 02 00 00       	call   400017c0 <apiDrawChar>
40001524:	a1 78 29 00 40       	mov    0x40002978,%eax
40001529:	83 e8 01             	sub    $0x1,%eax
4000152c:	89 45 f0             	mov    %eax,-0x10(%ebp)
4000152f:	eb 38                	jmp    40001569 <crawlSnake+0x2d4>
40001531:	8b 45 f0             	mov    -0x10(%ebp),%eax
40001534:	0f b6 84 00 a1 28 00 	movzbl 0x400028a1(%eax,%eax,1),%eax
4000153b:	40 
4000153c:	0f be d0             	movsbl %al,%edx
4000153f:	8b 45 f0             	mov    -0x10(%ebp),%eax
40001542:	0f b6 84 00 a0 28 00 	movzbl 0x400028a0(%eax,%eax,1),%eax
40001549:	40 
4000154a:	0f be c0             	movsbl %al,%eax
4000154d:	89 54 24 04          	mov    %edx,0x4(%esp)
40001551:	89 04 24             	mov    %eax,(%esp)
40001554:	e8 45 02 00 00       	call   4000179e <apiMoveXY>
40001559:	c7 04 24 40 00 00 00 	movl   $0x40,(%esp)
40001560:	e8 5b 02 00 00       	call   400017c0 <apiDrawChar>
40001565:	83 6d f0 01          	subl   $0x1,-0x10(%ebp)
40001569:	83 7d f0 00          	cmpl   $0x0,-0x10(%ebp)
4000156d:	79 c2                	jns    40001531 <crawlSnake+0x29c>
4000156f:	c7 05 68 29 00 40 00 	movl   $0x0,0x40002968
40001576:	00 00 00 
40001579:	eb 19                	jmp    40001594 <crawlSnake+0x2ff>
4000157b:	a1 68 29 00 40       	mov    0x40002968,%eax
40001580:	83 c0 01             	add    $0x1,%eax
40001583:	a3 68 29 00 40       	mov    %eax,0x40002968
40001588:	a1 6c 29 00 40       	mov    0x4000296c,%eax
4000158d:	f7 d0                	not    %eax
4000158f:	a3 6c 29 00 40       	mov    %eax,0x4000296c
40001594:	a1 68 29 00 40       	mov    0x40002968,%eax
40001599:	3d fe ff 3f 00       	cmp    $0x3ffffe,%eax
4000159e:	76 db                	jbe    4000157b <crawlSnake+0x2e6>
400015a0:	b8 00 00 00 00       	mov    $0x0,%eax
400015a5:	83 c4 24             	add    $0x24,%esp
400015a8:	5b                   	pop    %ebx
400015a9:	5d                   	pop    %ebp
400015aa:	c3                   	ret    

400015ab <gameOver>:
400015ab:	55                   	push   %ebp
400015ac:	89 e5                	mov    %esp,%ebp
400015ae:	83 ec 28             	sub    $0x28,%esp
400015b1:	e8 26 02 00 00       	call   400017dc <clear>
400015b6:	c7 44 24 04 0a 00 00 	movl   $0xa,0x4(%esp)
400015bd:	00 
400015be:	c7 04 24 1e 00 00 00 	movl   $0x1e,(%esp)
400015c5:	e8 d4 01 00 00       	call   4000179e <apiMoveXY>
400015ca:	c7 04 24 6b 18 00 40 	movl   $0x4000186b,(%esp)
400015d1:	e8 35 01 00 00       	call   4000170b <apiPuts>
400015d6:	c9                   	leave  
400015d7:	c3                   	ret    

400015d8 <next>:
400015d8:	55                   	push   %ebp
400015d9:	89 e5                	mov    %esp,%ebp
400015db:	a1 80 28 00 40       	mov    0x40002880,%eax
400015e0:	c1 f8 0e             	sar    $0xe,%eax
400015e3:	a3 80 28 00 40       	mov    %eax,0x40002880
400015e8:	a1 80 28 00 40       	mov    0x40002880,%eax
400015ed:	83 c0 03             	add    $0x3,%eax
400015f0:	a3 80 28 00 40       	mov    %eax,0x40002880
400015f5:	a1 80 28 00 40       	mov    0x40002880,%eax
400015fa:	5d                   	pop    %ebp
400015fb:	c3                   	ret    

400015fc <syscall0>:
400015fc:	55                   	push   %ebp
400015fd:	89 e5                	mov    %esp,%ebp
400015ff:	53                   	push   %ebx
40001600:	c7 05 88 29 00 40 00 	movl   $0x0,0x40002988
40001607:	00 00 00 
4000160a:	a1 88 29 00 40       	mov    0x40002988,%eax
4000160f:	a3 84 29 00 40       	mov    %eax,0x40002984
40001614:	a1 84 29 00 40       	mov    0x40002984,%eax
40001619:	a3 80 29 00 40       	mov    %eax,0x40002980
4000161e:	a1 80 29 00 40       	mov    0x40002980,%eax
40001623:	a3 7c 29 00 40       	mov    %eax,0x4000297c
40001628:	8b 45 08             	mov    0x8(%ebp),%eax
4000162b:	ba 7c 29 00 40       	mov    $0x4000297c,%edx
40001630:	89 d3                	mov    %edx,%ebx
40001632:	cd 80                	int    $0x80
40001634:	a1 88 29 00 40       	mov    0x40002988,%eax
40001639:	5b                   	pop    %ebx
4000163a:	5d                   	pop    %ebp
4000163b:	c3                   	ret    

4000163c <syscall1>:
4000163c:	55                   	push   %ebp
4000163d:	89 e5                	mov    %esp,%ebp
4000163f:	53                   	push   %ebx
40001640:	8b 45 0c             	mov    0xc(%ebp),%eax
40001643:	a3 7c 29 00 40       	mov    %eax,0x4000297c
40001648:	c7 05 88 29 00 40 00 	movl   $0x0,0x40002988
4000164f:	00 00 00 
40001652:	a1 88 29 00 40       	mov    0x40002988,%eax
40001657:	a3 84 29 00 40       	mov    %eax,0x40002984
4000165c:	a1 84 29 00 40       	mov    0x40002984,%eax
40001661:	a3 80 29 00 40       	mov    %eax,0x40002980
40001666:	8b 45 08             	mov    0x8(%ebp),%eax
40001669:	ba 7c 29 00 40       	mov    $0x4000297c,%edx
4000166e:	89 d3                	mov    %edx,%ebx
40001670:	cd 80                	int    $0x80
40001672:	a1 88 29 00 40       	mov    0x40002988,%eax
40001677:	5b                   	pop    %ebx
40001678:	5d                   	pop    %ebp
40001679:	c3                   	ret    

4000167a <syscall2>:
4000167a:	55                   	push   %ebp
4000167b:	89 e5                	mov    %esp,%ebp
4000167d:	53                   	push   %ebx
4000167e:	8b 45 0c             	mov    0xc(%ebp),%eax
40001681:	a3 7c 29 00 40       	mov    %eax,0x4000297c
40001686:	8b 45 10             	mov    0x10(%ebp),%eax
40001689:	a3 80 29 00 40       	mov    %eax,0x40002980
4000168e:	c7 05 88 29 00 40 00 	movl   $0x0,0x40002988
40001695:	00 00 00 
40001698:	a1 88 29 00 40       	mov    0x40002988,%eax
4000169d:	a3 84 29 00 40       	mov    %eax,0x40002984
400016a2:	8b 45 08             	mov    0x8(%ebp),%eax
400016a5:	ba 7c 29 00 40       	mov    $0x4000297c,%edx
400016aa:	89 d3                	mov    %edx,%ebx
400016ac:	cd 80                	int    $0x80
400016ae:	a1 88 29 00 40       	mov    0x40002988,%eax
400016b3:	5b                   	pop    %ebx
400016b4:	5d                   	pop    %ebp
400016b5:	c3                   	ret    

400016b6 <syscall3>:
400016b6:	55                   	push   %ebp
400016b7:	89 e5                	mov    %esp,%ebp
400016b9:	53                   	push   %ebx
400016ba:	8b 45 0c             	mov    0xc(%ebp),%eax
400016bd:	a3 7c 29 00 40       	mov    %eax,0x4000297c
400016c2:	8b 45 10             	mov    0x10(%ebp),%eax
400016c5:	a3 80 29 00 40       	mov    %eax,0x40002980
400016ca:	8b 45 14             	mov    0x14(%ebp),%eax
400016cd:	a3 84 29 00 40       	mov    %eax,0x40002984
400016d2:	c7 05 88 29 00 40 00 	movl   $0x0,0x40002988
400016d9:	00 00 00 
400016dc:	8b 45 08             	mov    0x8(%ebp),%eax
400016df:	ba 7c 29 00 40       	mov    $0x4000297c,%edx
400016e4:	89 d3                	mov    %edx,%ebx
400016e6:	cd 80                	int    $0x80
400016e8:	a1 88 29 00 40       	mov    0x40002988,%eax
400016ed:	5b                   	pop    %ebx
400016ee:	5d                   	pop    %ebp
400016ef:	c3                   	ret    

400016f0 <apiPutChar>:
400016f0:	55                   	push   %ebp
400016f1:	89 e5                	mov    %esp,%ebp
400016f3:	83 ec 18             	sub    $0x18,%esp
400016f6:	8b 45 08             	mov    0x8(%ebp),%eax
400016f9:	89 44 24 04          	mov    %eax,0x4(%esp)
400016fd:	c7 04 24 00 00 00 00 	movl   $0x0,(%esp)
40001704:	e8 33 ff ff ff       	call   4000163c <syscall1>
40001709:	c9                   	leave  
4000170a:	c3                   	ret    

4000170b <apiPuts>:
4000170b:	55                   	push   %ebp
4000170c:	89 e5                	mov    %esp,%ebp
4000170e:	83 ec 18             	sub    $0x18,%esp
40001711:	8b 45 08             	mov    0x8(%ebp),%eax
40001714:	89 44 24 04          	mov    %eax,0x4(%esp)
40001718:	c7 04 24 01 00 00 00 	movl   $0x1,(%esp)
4000171f:	e8 18 ff ff ff       	call   4000163c <syscall1>
40001724:	c9                   	leave  
40001725:	c3                   	ret    

40001726 <apiInitKeyboard>:
40001726:	55                   	push   %ebp
40001727:	89 e5                	mov    %esp,%ebp
40001729:	83 ec 18             	sub    $0x18,%esp
4000172c:	c7 04 24 02 00 00 00 	movl   $0x2,(%esp)
40001733:	e8 c4 fe ff ff       	call   400015fc <syscall0>
40001738:	c9                   	leave  
40001739:	c3                   	ret    

4000173a <apiReleaseKeyboard>:
4000173a:	55                   	push   %ebp
4000173b:	89 e5                	mov    %esp,%ebp
4000173d:	83 ec 18             	sub    $0x18,%esp
40001740:	c7 04 24 03 00 00 00 	movl   $0x3,(%esp)
40001747:	e8 b0 fe ff ff       	call   400015fc <syscall0>
4000174c:	c9                   	leave  
4000174d:	c3                   	ret    

4000174e <apiHasKey>:
4000174e:	55                   	push   %ebp
4000174f:	89 e5                	mov    %esp,%ebp
40001751:	83 ec 18             	sub    $0x18,%esp
40001754:	c7 04 24 04 00 00 00 	movl   $0x4,(%esp)
4000175b:	e8 9c fe ff ff       	call   400015fc <syscall0>
40001760:	c9                   	leave  
40001761:	c3                   	ret    

40001762 <apiGetKey>:
40001762:	55                   	push   %ebp
40001763:	89 e5                	mov    %esp,%ebp
40001765:	83 ec 18             	sub    $0x18,%esp
40001768:	c7 04 24 05 00 00 00 	movl   $0x5,(%esp)
4000176f:	e8 88 fe ff ff       	call   400015fc <syscall0>
40001774:	c9                   	leave  
40001775:	c3                   	ret    

40001776 <apiGetCurX>:
40001776:	55                   	push   %ebp
40001777:	89 e5                	mov    %esp,%ebp
40001779:	83 ec 18             	sub    $0x18,%esp
4000177c:	c7 04 24 06 00 00 00 	movl   $0x6,(%esp)
40001783:	e8 74 fe ff ff       	call   400015fc <syscall0>
40001788:	c9                   	leave  
40001789:	c3                   	ret    

4000178a <apiGetCurY>:
4000178a:	55                   	push   %ebp
4000178b:	89 e5                	mov    %esp,%ebp
4000178d:	83 ec 18             	sub    $0x18,%esp
40001790:	c7 04 24 07 00 00 00 	movl   $0x7,(%esp)
40001797:	e8 60 fe ff ff       	call   400015fc <syscall0>
4000179c:	c9                   	leave  
4000179d:	c3                   	ret    

4000179e <apiMoveXY>:
4000179e:	55                   	push   %ebp
4000179f:	89 e5                	mov    %esp,%ebp
400017a1:	83 ec 18             	sub    $0x18,%esp
400017a4:	8b 55 0c             	mov    0xc(%ebp),%edx
400017a7:	8b 45 08             	mov    0x8(%ebp),%eax
400017aa:	89 54 24 08          	mov    %edx,0x8(%esp)
400017ae:	89 44 24 04          	mov    %eax,0x4(%esp)
400017b2:	c7 04 24 08 00 00 00 	movl   $0x8,(%esp)
400017b9:	e8 bc fe ff ff       	call   4000167a <syscall2>
400017be:	c9                   	leave  
400017bf:	c3                   	ret    

400017c0 <apiDrawChar>:
400017c0:	55                   	push   %ebp
400017c1:	89 e5                	mov    %esp,%ebp
400017c3:	83 ec 18             	sub    $0x18,%esp
400017c6:	8b 45 08             	mov    0x8(%ebp),%eax
400017c9:	89 44 24 04          	mov    %eax,0x4(%esp)
400017cd:	c7 04 24 09 00 00 00 	movl   $0x9,(%esp)
400017d4:	e8 63 fe ff ff       	call   4000163c <syscall1>
400017d9:	c9                   	leave  
400017da:	c3                   	ret    
400017db:	90                   	nop

400017dc <clear>:
400017dc:	55                   	push   %ebp
400017dd:	89 e5                	mov    %esp,%ebp
400017df:	83 ec 28             	sub    $0x28,%esp
400017e2:	c7 44 24 04 00 00 00 	movl   $0x0,0x4(%esp)
400017e9:	00 
400017ea:	c7 04 24 00 00 00 00 	movl   $0x0,(%esp)
400017f1:	e8 a8 ff ff ff       	call   4000179e <apiMoveXY>
400017f6:	c7 45 f4 00 00 00 00 	movl   $0x0,-0xc(%ebp)
400017fd:	eb 10                	jmp    4000180f <clear+0x33>
400017ff:	c7 04 24 0a 00 00 00 	movl   $0xa,(%esp)
40001806:	e8 e5 fe ff ff       	call   400016f0 <apiPutChar>
4000180b:	83 45 f4 01          	addl   $0x1,-0xc(%ebp)
4000180f:	83 7d f4 18          	cmpl   $0x18,-0xc(%ebp)
40001813:	7e ea                	jle    400017ff <clear+0x23>
40001815:	c7 44 24 04 00 00 00 	movl   $0x0,0x4(%esp)
4000181c:	00 
4000181d:	c7 04 24 00 00 00 00 	movl   $0x0,(%esp)
40001824:	e8 75 ff ff ff       	call   4000179e <apiMoveXY>
40001829:	c9                   	leave  
4000182a:	c3                   	ret    
4000182b:	90                   	nop

4000182c <seed_rand>:
4000182c:	55                   	push   %ebp
4000182d:	89 e5                	mov    %esp,%ebp
4000182f:	8b 45 08             	mov    0x8(%ebp),%eax
40001832:	a3 84 28 00 40       	mov    %eax,0x40002884
40001837:	5d                   	pop    %ebp
40001838:	c3                   	ret    

40001839 <random>:
40001839:	55                   	push   %ebp
4000183a:	89 e5                	mov    %esp,%ebp
4000183c:	83 ec 08             	sub    $0x8,%esp
4000183f:	a1 84 28 00 40       	mov    0x40002884,%eax
40001844:	ff d0                	call   *%eax
40001846:	c9                   	leave  
40001847:	c3                   	ret    

Disassembly of section .rodata:

40001848 <.rodata>:
40001848:	23 00                	and    (%eax),%eax
4000184a:	4d                   	dec    %ebp
4000184b:	69 6e 69 20 53 6e 61 	imul   $0x616e5320,0x69(%esi),%ebp
40001852:	6b 65 20 42          	imul   $0x42,0x20(%ebp),%esp
40001856:	79 74                	jns    400018cc <random+0x93>
40001858:	65 20 47 61          	and    %al,%gs:0x61(%edi)
4000185c:	6d                   	insl   (%dx),%es:(%edi)
4000185d:	65 00 76 65          	add    %dh,%gs:0x65(%esi)
40001861:	72 73                	jb     400018d6 <random+0x9d>
40001863:	69 6f 6e 20 30 2e 31 	imul   $0x312e3020,0x6e(%edi),%ebp
4000186a:	00 47 41             	add    %al,0x41(%edi)
4000186d:	4d                   	dec    %ebp
4000186e:	45                   	inc    %ebp
4000186f:	20 4f 56             	and    %cl,0x56(%edi)
40001872:	45                   	inc    %ebp
40001873:	52                   	push   %edx
40001874:	20 21                	and    %ah,(%ecx)
40001876:	21 21                	and    %esp,(%ecx)
	...

Disassembly of section .bss:

40002880 <s.1062>:
40002880:	00 00                	add    %al,(%eax)
	...

40002884 <seed_func>:
	...

400028a0 <snake>:
	...

40002968 <d1>:
40002968:	00 00                	add    %al,(%eax)
	...

4000296c <d2>:
4000296c:	00 00                	add    %al,(%eax)
	...

40002970 <snake_direction>:
40002970:	00 00                	add    %al,(%eax)
	...

40002974 <apple>:
40002974:	00 00                	add    %al,(%eax)
	...

40002978 <snake_length>:
40002978:	00 00                	add    %al,(%eax)
	...

4000297c <p>:
	...

Disassembly of section .comment:

00000000 <.comment>:
   0:	47                   	inc    %edi
   1:	43                   	inc    %ebx
   2:	43                   	inc    %ebx
   3:	3a 20                	cmp    (%eax),%ah
   5:	28 44 65 62          	sub    %al,0x62(%ebp,%eiz,2)
   9:	69 61 6e 20 34 2e 34 	imul   $0x342e3420,0x6e(%ecx),%esp
  10:	2e                   	cs
  11:	35 2d 38 29 20       	xor    $0x2029382d,%eax
  16:	34 2e                	xor    $0x2e,%al
  18:	34 2e                	xor    $0x2e,%al
  1a:	35                   	.byte 0x35
	...
